target datalayout = "e-m:e-p270:32:32-p271:32:32-p272:64:64-i64:64-i128:128-f80:128-n8:16:32:64-S128"
target triple = "x86_64-unknown-linux-gnu"

%struct.nstime_t = type { i64 }
%struct.atomic_p_t = type { ptr }
%struct.edata_s = type { i64, ptr, %union.anon.10, ptr, i64, %union.anon.11, %union.anon.14 }
%union.anon.10 = type { i64 }
%union.anon.11 = type { %union.anon.13 }
%union.anon.13 = type { %struct.edata_heap_link_t }
%struct.edata_heap_link_t = type { %struct.phn_link_s }
%struct.phn_link_s = type { ptr, ptr, ptr }
%union.anon.14 = type { %struct.slab_data_s }
%struct.slab_data_s = type { [8 x i64] }
%struct.e_prof_info_s = type { %struct.nstime_t, i64, %struct.atomic_p_t, %struct.atomic_p_t }

; Function Attrs: nounwind uwtable
define internal void @edata_prof_tctx_set(ptr noundef %edata, ptr noundef %tctx) #0 {
entry:
  %retval.i.i = alloca i32, align 4
  %mo.addr.i.i = alloca i32, align 4
  %a.addr.i = alloca ptr, align 8
  %val.addr.i = alloca ptr, align 8
  %mo.addr.i = alloca i32, align 4
  %edata.addr = alloca ptr, align 8
  %tctx.addr = alloca ptr, align 8
  store ptr %edata, ptr %edata.addr, align 8
  store ptr %tctx, ptr %tctx.addr, align 8
  %0 = load ptr, ptr %edata.addr, align 8
  %1 = getelementptr inbounds %struct.edata_s, ptr %0, i32 0, i32 6
  %e_prof_tctx = getelementptr inbounds %struct.e_prof_info_s, ptr %1, i32 0, i32 2
  %2 = load ptr, ptr %tctx.addr, align 8
  store ptr %e_prof_tctx, ptr %a.addr.i, align 8
  store ptr %2, ptr %val.addr.i, align 8
  store i32 2, ptr %mo.addr.i, align 4
  %3 = load ptr, ptr %a.addr.i, align 8
  %4 = load i32, ptr %mo.addr.i, align 4
  store i32 %4, ptr %mo.addr.i.i, align 4
  %5 = load i32, ptr %mo.addr.i.i, align 4
  switch i32 %5, label %sw.epilog.i.i [
    i32 0, label %sw.bb.i.i
    i32 1, label %sw.bb1.i.i
    i32 2, label %sw.bb2.i.i
    i32 3, label %sw.bb3.i.i
    i32 4, label %sw.bb4.i.i
  ]

sw.bb.i.i:                                        ; preds = %entry
  store i32 0, ptr %retval.i.i, align 4
  br label %atomic_enum_to_builtin.exit.i

sw.bb1.i.i:                                       ; preds = %entry
  store i32 2, ptr %retval.i.i, align 4
  br label %atomic_enum_to_builtin.exit.i

sw.bb2.i.i:                                       ; preds = %entry
  store i32 3, ptr %retval.i.i, align 4
  br label %atomic_enum_to_builtin.exit.i

sw.bb3.i.i:                                       ; preds = %entry
  store i32 4, ptr %retval.i.i, align 4
  br label %atomic_enum_to_builtin.exit.i

sw.bb4.i.i:                                       ; preds = %entry
  store i32 5, ptr %retval.i.i, align 4
  br label %atomic_enum_to_builtin.exit.i

sw.epilog.i.i:                                    ; preds = %entry
  unreachable

atomic_enum_to_builtin.exit.i:                    ; preds = %sw.bb4.i.i, %sw.bb3.i.i, %sw.bb2.i.i, %sw.bb1.i.i, %sw.bb.i.i
  %6 = load i32, ptr %retval.i.i, align 4
  switch i32 %6, label %monotonic.i [
    i32 3, label %release.i
    i32 5, label %seqcst.i
  ]

monotonic.i:                                      ; preds = %atomic_enum_to_builtin.exit.i
  %7 = load i64, ptr %val.addr.i, align 8
  store atomic i64 %7, ptr %3 monotonic, align 8
  br label %atomic_store_p.exit

release.i:                                        ; preds = %atomic_enum_to_builtin.exit.i
  %8 = load i64, ptr %val.addr.i, align 8
  store atomic i64 %8, ptr %3 release, align 8
  br label %atomic_store_p.exit

seqcst.i:                                         ; preds = %atomic_enum_to_builtin.exit.i
  %9 = load i64, ptr %val.addr.i, align 8
  store atomic i64 %9, ptr %3 seq_cst, align 8
  br label %atomic_store_p.exit

atomic_store_p.exit:                              ; preds = %seqcst.i, %release.i, %monotonic.i
  ret void
}

; Function Attrs: nounwind uwtable
define internal void @large_prof_tctx_set(ptr noundef %edata, ptr noundef %tctx) #0 {
entry:
  %edata.addr = alloca ptr, align 8
  %tctx.addr = alloca ptr, align 8
  store ptr %edata, ptr %edata.addr, align 8
  store ptr %tctx, ptr %tctx.addr, align 8
  %0 = load ptr, ptr %edata.addr, align 8
  %1 = load ptr, ptr %tctx.addr, align 8
  call void @edata_prof_tctx_set(ptr noundef %0, ptr noundef %1)
  ret void
}

; Function Attrs: nounwind uwtable
define internal void @edata_prof_alloc_size_set(ptr noundef %edata, i64 noundef %size) #0 {
entry:
  %edata.addr = alloca ptr, align 8
  %size.addr = alloca i64, align 8
  store ptr %edata, ptr %edata.addr, align 8
  store i64 %size, ptr %size.addr, align 8
  %0 = load i64, ptr %size.addr, align 8
  %1 = load ptr, ptr %edata.addr, align 8
  %2 = getelementptr inbounds %struct.edata_s, ptr %1, i32 0, i32 6
  %e_prof_alloc_size = getelementptr inbounds %struct.e_prof_info_s, ptr %2, i32 0, i32 1
  store i64 %0, ptr %e_prof_alloc_size, align 8
  ret void
}

; Function Attrs: nounwind uwtable
define internal void @edata_prof_alloc_time_set(ptr noundef %edata, ptr noundef %t) #0 {
entry:
  %edata.addr = alloca ptr, align 8
  %t.addr = alloca ptr, align 8
  store ptr %edata, ptr %edata.addr, align 8
  store ptr %t, ptr %t.addr, align 8
  %0 = load ptr, ptr %edata.addr, align 8
  %1 = getelementptr inbounds %struct.edata_s, ptr %0, i32 0, i32 6
  %e_prof_alloc_time = getelementptr inbounds %struct.e_prof_info_s, ptr %1, i32 0, i32 0
  %2 = load ptr, ptr %t.addr, align 8
  call void @nstime_copy(ptr noundef %e_prof_alloc_time, ptr noundef %2)
  ret void
}

; Function Attrs: nounwind uwtable
define hidden void @large_prof_info_set(ptr noundef %edata, ptr noundef %tctx, i64 noundef %size) #0 {
entry:
  %edata.addr = alloca ptr, align 8
  %tctx.addr = alloca ptr, align 8
  %size.addr = alloca i64, align 8
  %t = alloca %struct.nstime_t, align 8
  store ptr %edata, ptr %edata.addr, align 8
  store ptr %tctx, ptr %tctx.addr, align 8
  store i64 %size, ptr %size.addr, align 8
  call void @nstime_prof_init_update(ptr noundef %t)
  %0 = load ptr, ptr %edata.addr, align 8
  call void @edata_prof_alloc_time_set(ptr noundef %0, ptr noundef %t)
  %1 = load ptr, ptr %edata.addr, align 8
  %2 = load i64, ptr %size.addr, align 8
  call void @edata_prof_alloc_size_set(ptr noundef %1, i64 noundef %2)
  %3 = load ptr, ptr %edata.addr, align 8
  call void @edata_prof_recent_alloc_init(ptr noundef %3)
  %4 = load ptr, ptr %edata.addr, align 8
  %5 = load ptr, ptr %tctx.addr, align 8
  call void @large_prof_tctx_set(ptr noundef %4, ptr noundef %5)
  ret void
}