; Function Attrs: nounwind uwtable
define hidden void @large_prof_info_set(ptr noundef %edata, ptr noundef %tctx, i64 noundef %size) local_unnamed_addr #0 {
entry:
  %t = alloca %struct.nstime_t, align 8
  call void @nstime_prof_init_update(ptr noundef nonnull %t) #10
  %0 = getelementptr inbounds i8, ptr %edata, i64 64
  call void @nstime_copy(ptr noundef nonnull %0, ptr noundef nonnull %t) #10
  %e_prof_alloc_size.i = getelementptr inbounds i8, ptr %edata, i64 72
  store i64 %size, ptr %e_prof_alloc_size.i, align 8
  call void @edata_prof_recent_alloc_init(ptr noundef %edata) #10
  %e_prof_tctx.i.i = getelementptr inbounds i8, ptr %edata, i64 80
  %1 = ptrtoint ptr %tctx to i64
  store atomic i64 %1, ptr %e_prof_tctx.i.i release, align 8
  ret void
}